target datalayout = "e-m:e-p270:32:32-p271:32:32-p272:64:64-i64:64-i128:128-f80:128-n8:16:32:64-S128"
target triple = "x86_64-pc-linux-gnu"

%struct.PyCompilerFlags = type { i32, i32 }
%struct._PyCompiler = type { ptr, ptr, %struct._PyFutureFeatures, %struct.PyCompilerFlags, i32, i32, ptr, ptr, ptr, i8 }
%struct._PyFutureFeatures = type { i32, %struct._Py_SourceLocation }
%struct._Py_SourceLocation = type { i32, i32, i32, i32 }
%struct._mod = type { i32, %union.anon.806 }
%union.anon.806 = type { %struct.anon.807 }
%struct.anon.807 = type { ptr, ptr }
%struct.anon.808 = type { ptr }
%struct.anon.809 = type { ptr }
%struct.asdl_stmt_seq = type { i64, ptr, [1 x ptr] }
%struct._stmt = type { i32, %union.anon.811, i32, i32, i32, i32 }
%union.anon.811 = type { %struct.anon.812 }
%struct.anon.812 = type { ptr, ptr, ptr, ptr, ptr, ptr, ptr }

@PyExc_SystemError = external global ptr, align 8
@.str.16 = private unnamed_addr constant [38 x i8] c"module kind %d should not be possible\00", align 1

; Function Attrs: nounwind uwtable
define internal { i64, i64 } @start_location(ptr noundef %0) #0 {
  %2 = alloca %struct._Py_SourceLocation, align 4
  %3 = alloca ptr, align 8
  %4 = alloca ptr, align 8
  store ptr %0, ptr %3, align 8, !tbaa !42
  %5 = load ptr, ptr %3, align 8, !tbaa !42
  %6 = icmp eq ptr %5, null
  br i1 %6, label %7, label %8

7:                                                ; preds = %1
  br label %12

8:                                                ; preds = %1
  %9 = load ptr, ptr %3, align 8, !tbaa !42
  %10 = getelementptr inbounds nuw %struct.asdl_stmt_seq, ptr %9, i32 0, i32 0
  %11 = load i64, ptr %10, align 8, !tbaa !157
  br label %12

12:                                               ; preds = %8, %7
  %13 = phi i64 [ 0, %7 ], [ %11, %8 ]
  %14 = icmp sgt i64 %13, 0
  br i1 %14, label %15, label %36

15:                                               ; preds = %12
  call void @llvm.lifetime.start.p0(i64 8, ptr %4) #8
  %16 = load ptr, ptr %3, align 8, !tbaa !42
  %17 = getelementptr inbounds nuw %struct.asdl_stmt_seq, ptr %16, i32 0, i32 2
  %18 = getelementptr [1 x ptr], ptr %17, i64 0, i64 0
  %19 = load ptr, ptr %18, align 8, !tbaa !112
  store ptr %19, ptr %4, align 8, !tbaa !112
  %20 = getelementptr inbounds nuw %struct._Py_SourceLocation, ptr %2, i32 0, i32 0
  %21 = load ptr, ptr %4, align 8, !tbaa !112
  %22 = getelementptr inbounds nuw %struct._stmt, ptr %21, i32 0, i32 2
  %23 = load i32, ptr %22, align 8, !tbaa !159
  store i32 %23, ptr %20, align 4, !tbaa !94
  %24 = getelementptr inbounds nuw %struct._Py_SourceLocation, ptr %2, i32 0, i32 1
  %25 = load ptr, ptr %4, align 8, !tbaa !112
  %26 = getelementptr inbounds nuw %struct._stmt, ptr %25, i32 0, i32 4
  %27 = load i32, ptr %26, align 8, !tbaa !161
  store i32 %27, ptr %24, align 4, !tbaa !96
  %28 = getelementptr inbounds nuw %struct._Py_SourceLocation, ptr %2, i32 0, i32 2
  %29 = load ptr, ptr %4, align 8, !tbaa !112
  %30 = getelementptr inbounds nuw %struct._stmt, ptr %29, i32 0, i32 3
  %31 = load i32, ptr %30, align 4, !tbaa !162
  store i32 %31, ptr %28, align 4, !tbaa !95
  %32 = getelementptr inbounds nuw %struct._Py_SourceLocation, ptr %2, i32 0, i32 3
  %33 = load ptr, ptr %4, align 8, !tbaa !112
  %34 = getelementptr inbounds nuw %struct._stmt, ptr %33, i32 0, i32 5
  %35 = load i32, ptr %34, align 4, !tbaa !163
  store i32 %35, ptr %32, align 4, !tbaa !97
  call void @llvm.lifetime.end.p0(i64 8, ptr %4) #8
  br label %41

36:                                               ; preds = %12
  %37 = getelementptr inbounds nuw %struct._Py_SourceLocation, ptr %2, i32 0, i32 0
  store i32 1, ptr %37, align 4, !tbaa !94
  %38 = getelementptr inbounds nuw %struct._Py_SourceLocation, ptr %2, i32 0, i32 1
  store i32 1, ptr %38, align 4, !tbaa !96
  %39 = getelementptr inbounds nuw %struct._Py_SourceLocation, ptr %2, i32 0, i32 2
  store i32 0, ptr %39, align 4, !tbaa !95
  %40 = getelementptr inbounds nuw %struct._Py_SourceLocation, ptr %2, i32 0, i32 3
  store i32 0, ptr %40, align 4, !tbaa !97
  br label %41

41:                                               ; preds = %36, %15
  %42 = load { i64, i64 }, ptr %2, align 4
  ret { i64, i64 } %42
}

; Function Attrs: nounwind uwtable
define internal i32 @compiler_codegen(ptr noundef %0, ptr noundef %1) #0 {
  %3 = alloca i32, align 4
  %4 = alloca ptr, align 8
  %5 = alloca ptr, align 8
  %6 = alloca ptr, align 8
  %7 = alloca %struct._Py_SourceLocation, align 4
  %8 = alloca i32, align 4
  %9 = alloca ptr, align 8
  %10 = alloca %struct._Py_SourceLocation, align 4
  store ptr %0, ptr %4, align 8, !tbaa !4
  store ptr %1, ptr %5, align 8, !tbaa !125
  br label %11

11:                                               ; preds = %2
  %12 = load ptr, ptr %4, align 8, !tbaa !4
  %13 = load ptr, ptr %5, align 8, !tbaa !125
  %14 = call i32 @_PyCodegen_EnterAnonymousScope(ptr noundef %12, ptr noundef %13)
  %15 = icmp eq i32 %14, -1
  br i1 %15, label %16, label %17

16:                                               ; preds = %11
  store i32 -1, ptr %3, align 4
  br label %95

17:                                               ; preds = %11
  br label %18

18:                                               ; preds = %17
  %19 = load ptr, ptr %5, align 8, !tbaa !125
  %20 = getelementptr inbounds nuw %struct._mod, ptr %19, i32 0, i32 0
  %21 = load i32, ptr %20, align 8, !tbaa !129
  switch i32 %21, label %88 [
    i32 1, label %22
    i32 2, label %48
    i32 3, label %76
  ]

22:                                               ; preds = %18
  call void @llvm.lifetime.start.p0(i64 8, ptr %6) #8
  %23 = load ptr, ptr %5, align 8, !tbaa !125
  %24 = getelementptr inbounds nuw %struct._mod, ptr %23, i32 0, i32 1
  %25 = getelementptr inbounds nuw %struct.anon.807, ptr %24, i32 0, i32 0
  %26 = load ptr, ptr %25, align 8, !tbaa !11
  store ptr %26, ptr %6, align 8, !tbaa !42
  br label %27

27:                                               ; preds = %22
  %28 = load ptr, ptr %4, align 8, !tbaa !4
  %29 = load ptr, ptr %6, align 8, !tbaa !42
  %30 = call { i64, i64 } @start_location(ptr noundef %29)
  %31 = getelementptr inbounds nuw { i64, i64 }, ptr %7, i32 0, i32 0
  %32 = extractvalue { i64, i64 } %30, 0
  store i64 %32, ptr %31, align 4
  %33 = getelementptr inbounds nuw { i64, i64 }, ptr %7, i32 0, i32 1
  %34 = extractvalue { i64, i64 } %30, 1
  store i64 %34, ptr %33, align 4
  %35 = load ptr, ptr %6, align 8, !tbaa !42
  %36 = getelementptr inbounds nuw { i64, i64 }, ptr %7, i32 0, i32 0
  %37 = load i64, ptr %36, align 4
  %38 = getelementptr inbounds nuw { i64, i64 }, ptr %7, i32 0, i32 1
  %39 = load i64, ptr %38, align 4
  %40 = call i32 @_PyCodegen_Body(ptr noundef %28, i64 %37, i64 %39, ptr noundef %35, i1 noundef zeroext false)
  %41 = icmp eq i32 %40, -1
  br i1 %41, label %42, label %43

42:                                               ; preds = %27
  store i32 -1, ptr %3, align 4
  store i32 1, ptr %8, align 4
  br label %46

43:                                               ; preds = %27
  br label %44

44:                                               ; preds = %43
  br label %45

45:                                               ; preds = %44
  store i32 4, ptr %8, align 4
  br label %46

46:                                               ; preds = %45, %42
  call void @llvm.lifetime.end.p0(i64 8, ptr %6) #8
  %47 = load i32, ptr %8, align 4
  switch i32 %47, label %97 [
    i32 1, label %95
    i32 4, label %94
  ]

48:                                               ; preds = %18
  %49 = load ptr, ptr %4, align 8, !tbaa !4
  %50 = getelementptr inbounds nuw %struct._PyCompiler, ptr %49, i32 0, i32 5
  store i32 1, ptr %50, align 8, !tbaa !117
  call void @llvm.lifetime.start.p0(i64 8, ptr %9) #8
  %51 = load ptr, ptr %5, align 8, !tbaa !125
  %52 = getelementptr inbounds nuw %struct._mod, ptr %51, i32 0, i32 1
  %53 = getelementptr inbounds nuw %struct.anon.808, ptr %52, i32 0, i32 0
  %54 = load ptr, ptr %53, align 8, !tbaa !11
  store ptr %54, ptr %9, align 8, !tbaa !42
  br label %55

55:                                               ; preds = %48
  %56 = load ptr, ptr %4, align 8, !tbaa !4
  %57 = load ptr, ptr %9, align 8, !tbaa !42
  %58 = call { i64, i64 } @start_location(ptr noundef %57)
  %59 = getelementptr inbounds nuw { i64, i64 }, ptr %10, i32 0, i32 0
  %60 = extractvalue { i64, i64 } %58, 0
  store i64 %60, ptr %59, align 4
  %61 = getelementptr inbounds nuw { i64, i64 }, ptr %10, i32 0, i32 1
  %62 = extractvalue { i64, i64 } %58, 1
  store i64 %62, ptr %61, align 4
  %63 = load ptr, ptr %9, align 8, !tbaa !42
  %64 = getelementptr inbounds nuw { i64, i64 }, ptr %10, i32 0, i32 0
  %65 = load i64, ptr %64, align 4
  %66 = getelementptr inbounds nuw { i64, i64 }, ptr %10, i32 0, i32 1
  %67 = load i64, ptr %66, align 4
  %68 = call i32 @_PyCodegen_Body(ptr noundef %56, i64 %65, i64 %67, ptr noundef %63, i1 noundef zeroext true)
  %69 = icmp eq i32 %68, -1
  br i1 %69, label %70, label %71

70:                                               ; preds = %55
  store i32 -1, ptr %3, align 4
  store i32 1, ptr %8, align 4
  br label %74

71:                                               ; preds = %55
  br label %72

72:                                               ; preds = %71
  br label %73

73:                                               ; preds = %72
  store i32 4, ptr %8, align 4
  br label %74

74:                                               ; preds = %73, %70
  call void @llvm.lifetime.end.p0(i64 8, ptr %9) #8
  %75 = load i32, ptr %8, align 4
  switch i32 %75, label %97 [
    i32 1, label %95
    i32 4, label %94
  ]

76:                                               ; preds = %18
  br label %77

77:                                               ; preds = %76
  %78 = load ptr, ptr %4, align 8, !tbaa !4
  %79 = load ptr, ptr %5, align 8, !tbaa !125
  %80 = getelementptr inbounds nuw %struct._mod, ptr %79, i32 0, i32 1
  %81 = getelementptr inbounds nuw %struct.anon.809, ptr %80, i32 0, i32 0
  %82 = load ptr, ptr %81, align 8, !tbaa !11
  %83 = call i32 @_PyCodegen_Expression(ptr noundef %78, ptr noundef %82)
  %84 = icmp eq i32 %83, -1
  br i1 %84, label %85, label %86

85:                                               ; preds = %77
  store i32 -1, ptr %3, align 4
  br label %95

86:                                               ; preds = %77
  br label %87

87:                                               ; preds = %86
  br label %94

88:                                               ; preds = %18
  %89 = load ptr, ptr @PyExc_SystemError, align 8, !tbaa !32
  %90 = load ptr, ptr %5, align 8, !tbaa !125
  %91 = getelementptr inbounds nuw %struct._mod, ptr %90, i32 0, i32 0
  %92 = load i32, ptr %91, align 8, !tbaa !129
  %93 = call ptr (ptr, ptr, ...) @PyErr_Format(ptr noundef %89, ptr noundef @.str.16, i32 noundef %92)
  store i32 -1, ptr %3, align 4
  br label %95

94:                                               ; preds = %87, %74, %46
  store i32 0, ptr %3, align 4
  br label %95

95:                                               ; preds = %94, %88, %85, %74, %46, %16
  %96 = load i32, ptr %3, align 4
  ret i32 %96

97:                                               ; preds = %74, %46
  unreachable
}