; Function Attrs: nounwind uwtable
define internal fastcc range(i32 -1, 1) i32 @compiler_codegen(ptr noundef nonnull %0, ptr noundef %1) unnamed_addr #0 {
  %3 = tail call i32 @_PyCodegen_EnterAnonymousScope(ptr noundef nonnull %0, ptr noundef %1) #11
  %4 = icmp eq i32 %3, -1
  br i1 %4, label %73, label %5

5:                                                ; preds = %2
  %6 = load i32, ptr %1, align 8, !tbaa !97
  switch i32 %6, label %69 [
    i32 1, label %7
    i32 2, label %35
    i32 3, label %64
  ]

7:                                                ; preds = %5
  %8 = getelementptr inbounds nuw i8, ptr %1, i64 8
  %9 = load ptr, ptr %8, align 8, !tbaa !4
  %10 = icmp eq ptr %9, null
  br i1 %10, label %start_location.exit, label %11

11:                                               ; preds = %7
  %12 = load i64, ptr %9, align 8, !tbaa !116
  %13 = icmp sgt i64 %12, 0
  br i1 %13, label %14, label %start_location.exit

14:                                               ; preds = %11
  %15 = getelementptr inbounds nuw i8, ptr %9, i64 16
  %16 = load ptr, ptr %15, align 8, !tbaa !118
  %17 = getelementptr inbounds nuw i8, ptr %16, i64 64
  %18 = load i32, ptr %17, align 8, !tbaa !120
  %19 = getelementptr inbounds nuw i8, ptr %16, i64 72
  %20 = load i32, ptr %19, align 8, !tbaa !122
  %21 = getelementptr inbounds nuw i8, ptr %16, i64 68
  %22 = load i32, ptr %21, align 4, !tbaa !123
  %23 = getelementptr inbounds nuw i8, ptr %16, i64 76
  %24 = load i32, ptr %23, align 4, !tbaa !124
  %25 = zext i32 %20 to i64
  %26 = shl nuw i64 %25, 32
  %27 = zext i32 %18 to i64
  %28 = or disjoint i64 %26, %27
  %29 = zext i32 %24 to i64
  %30 = shl nuw i64 %29, 32
  %31 = zext i32 %22 to i64
  %32 = or disjoint i64 %30, %31
  br label %start_location.exit

start_location.exit:                              ; preds = %7, %11, %14
  %.sroa.0.0.insert.insert.i = phi i64 [ %28, %14 ], [ 4294967297, %7 ], [ 4294967297, %11 ]
  %.sroa.5.8.insert.insert.i = phi i64 [ %32, %14 ], [ 0, %7 ], [ 0, %11 ]
  %33 = tail call i32 @_PyCodegen_Body(ptr noundef nonnull %0, i64 %.sroa.0.0.insert.insert.i, i64 %.sroa.5.8.insert.insert.i, ptr noundef %9, i1 noundef zeroext false) #11
  %34 = icmp eq i32 %33, -1
  br i1 %34, label %73, label %72

35:                                               ; preds = %5
  %36 = getelementptr inbounds nuw i8, ptr %0, i64 48
  store i32 1, ptr %36, align 8, !tbaa !89
  %37 = getelementptr inbounds nuw i8, ptr %1, i64 8
  %38 = load ptr, ptr %37, align 8, !tbaa !4
  %39 = icmp eq ptr %38, null
  br i1 %39, label %start_location.exit26, label %40

40:                                               ; preds = %35
  %41 = load i64, ptr %38, align 8, !tbaa !116
  %42 = icmp sgt i64 %41, 0
  br i1 %42, label %43, label %start_location.exit26

43:                                               ; preds = %40
  %44 = getelementptr inbounds nuw i8, ptr %38, i64 16
  %45 = load ptr, ptr %44, align 8, !tbaa !118
  %46 = getelementptr inbounds nuw i8, ptr %45, i64 64
  %47 = load i32, ptr %46, align 8, !tbaa !120
  %48 = getelementptr inbounds nuw i8, ptr %45, i64 72
  %49 = load i32, ptr %48, align 8, !tbaa !122
  %50 = getelementptr inbounds nuw i8, ptr %45, i64 68
  %51 = load i32, ptr %50, align 4, !tbaa !123
  %52 = getelementptr inbounds nuw i8, ptr %45, i64 76
  %53 = load i32, ptr %52, align 4, !tbaa !124
  %54 = zext i32 %49 to i64
  %55 = shl nuw i64 %54, 32
  %56 = zext i32 %47 to i64
  %57 = or disjoint i64 %55, %56
  %58 = zext i32 %53 to i64
  %59 = shl nuw i64 %58, 32
  %60 = zext i32 %51 to i64
  %61 = or disjoint i64 %59, %60
  br label %start_location.exit26

start_location.exit26:                            ; preds = %35, %40, %43
  %.sroa.0.0.insert.insert.i22 = phi i64 [ %57, %43 ], [ 4294967297, %35 ], [ 4294967297, %40 ]
  %.sroa.5.8.insert.insert.i23 = phi i64 [ %61, %43 ], [ 0, %35 ], [ 0, %40 ]
  %62 = tail call i32 @_PyCodegen_Body(ptr noundef nonnull %0, i64 %.sroa.0.0.insert.insert.i22, i64 %.sroa.5.8.insert.insert.i23, ptr noundef %38, i1 noundef zeroext true) #11
  %63 = icmp eq i32 %62, -1
  br i1 %63, label %73, label %72

64:                                               ; preds = %5
  %65 = getelementptr inbounds nuw i8, ptr %1, i64 8
  %66 = load ptr, ptr %65, align 8, !tbaa !4
  %67 = tail call i32 @_PyCodegen_Expression(ptr noundef nonnull %0, ptr noundef %66) #11
  %68 = icmp eq i32 %67, -1
  br i1 %68, label %73, label %72

69:                                               ; preds = %5
  %70 = load ptr, ptr @PyExc_SystemError, align 8, !tbaa !28
  %71 = tail call ptr (ptr, ptr, ...) @PyErr_Format(ptr noundef %70, ptr noundef nonnull @.str.16, i32 noundef %6) #11
  br label %73

72:                                               ; preds = %start_location.exit26, %start_location.exit, %64
  br label %73

73:                                               ; preds = %start_location.exit26, %start_location.exit, %64, %2, %72, %69
  %.0 = phi i32 [ -1, %69 ], [ 0, %72 ], [ -1, %start_location.exit26 ], [ -1, %start_location.exit ], [ -1, %2 ], [ -1, %64 ]
  ret i32 %.0
}